; Function Attrs: mustprogress nounwind uwtable
define internal fastcc noundef nonnull align 8 dereferenceable(176) ptr @_ZN4llvm26ImutAVLTreeGenericIteratorINS_17ImutContainerInfoIN12_GLOBAL__N_116EquivalenceClassEEEEppEv(ptr noundef nonnull returned align 8 dereferenceable(176) %0) unnamed_addr #1 align 2 {
  %2 = load ptr, ptr %0, align 8
  %3 = tail call noundef i64 @_ZNK4llvm15SmallVectorBaseIjE4sizeEv(ptr noundef nonnull align 8 dereferenceable(16) %0) #22
  %4 = getelementptr inbounds i64, ptr %2, i64 %3
  %5 = getelementptr inbounds i8, ptr %4, i64 -8
  %6 = load i64, ptr %5, align 8
  %7 = and i64 %6, -4
  %8 = inttoptr i64 %7 to ptr
  %9 = load ptr, ptr %0, align 8
  %10 = tail call noundef i64 @_ZNK4llvm15SmallVectorBaseIjE4sizeEv(ptr noundef nonnull align 8 dereferenceable(16) %0) #22
  %11 = getelementptr inbounds i64, ptr %9, i64 %10
  %12 = getelementptr inbounds i8, ptr %11, i64 -8
  %13 = load i64, ptr %12, align 8
  %14 = and i64 %13, 3
  switch i64 %14, label %73 [
    i64 0, label %15
    i64 1, label %36
    i64 3, label %57
  ]

15:                                               ; preds = %1
  %16 = getelementptr i8, ptr %8, i64 8
  %.val = load ptr, ptr %16, align 8
  %.not8 = icmp eq ptr %.val, null
  br i1 %.not8, label %29, label %17

17:                                               ; preds = %15
  %18 = ptrtoint ptr %.val to i64
  %19 = tail call noundef i64 @_ZNK4llvm15SmallVectorBaseIjE4sizeEv(ptr noundef nonnull align 8 dereferenceable(16) %0) #22
  %20 = add i64 %19, 1
  %21 = tail call noundef i64 @_ZNK4llvm15SmallVectorBaseIjE8capacityEv(ptr noundef nonnull align 8 dereferenceable(16) %0) #22
  %.not.i.i.i = icmp ugt i64 %20, %21
  br i1 %.not.i.i.i, label %22, label %_ZN4llvm23SmallVectorTemplateBaseImLb1EE9push_backEm.exit

22:                                               ; preds = %17
  %23 = getelementptr inbounds i8, ptr %0, i64 16
  tail call void @_ZN4llvm15SmallVectorBaseIjE8grow_podEPvmm(ptr noundef nonnull align 8 dereferenceable(16) %0, ptr noundef nonnull %23, i64 noundef %20, i64 noundef 8) #22
  br label %_ZN4llvm23SmallVectorTemplateBaseImLb1EE9push_backEm.exit

_ZN4llvm23SmallVectorTemplateBaseImLb1EE9push_backEm.exit: ; preds = %17, %22
  %24 = load ptr, ptr %0, align 8
  %25 = tail call noundef i64 @_ZNK4llvm15SmallVectorBaseIjE4sizeEv(ptr noundef nonnull align 8 dereferenceable(16) %0) #22
  %26 = getelementptr inbounds i64, ptr %24, i64 %25
  store i64 %18, ptr %26, align 1
  %27 = tail call noundef i64 @_ZNK4llvm15SmallVectorBaseIjE4sizeEv(ptr noundef nonnull align 8 dereferenceable(16) %0) #22
  %28 = add i64 %27, 1
  tail call void @_ZN4llvm15SmallVectorBaseIjE8set_sizeEm(ptr noundef nonnull align 8 dereferenceable(16) %0, i64 noundef %28) #22
  br label %_ZN4llvm26ImutAVLTreeGenericIteratorINS_17ImutContainerInfoIN12_GLOBAL__N_116EquivalenceClassEEEE12skipToParentEv.exit

29:                                               ; preds = %15
  %30 = load ptr, ptr %0, align 8
  %31 = tail call noundef i64 @_ZNK4llvm15SmallVectorBaseIjE4sizeEv(ptr noundef nonnull align 8 dereferenceable(16) %0) #22
  %32 = getelementptr inbounds i64, ptr %30, i64 %31
  %33 = getelementptr inbounds i8, ptr %32, i64 -8
  %34 = load i64, ptr %33, align 8
  %35 = or i64 %34, 1
  store i64 %35, ptr %33, align 8
  br label %_ZN4llvm26ImutAVLTreeGenericIteratorINS_17ImutContainerInfoIN12_GLOBAL__N_116EquivalenceClassEEEE12skipToParentEv.exit

36:                                               ; preds = %1
  %37 = getelementptr i8, ptr %8, i64 16
  %.val9 = load ptr, ptr %37, align 8
  %.not = icmp eq ptr %.val9, null
  br i1 %.not, label %50, label %38

38:                                               ; preds = %36
  %39 = ptrtoint ptr %.val9 to i64
  %40 = tail call noundef i64 @_ZNK4llvm15SmallVectorBaseIjE4sizeEv(ptr noundef nonnull align 8 dereferenceable(16) %0) #22
  %41 = add i64 %40, 1
  %42 = tail call noundef i64 @_ZNK4llvm15SmallVectorBaseIjE8capacityEv(ptr noundef nonnull align 8 dereferenceable(16) %0) #22
  %.not.i.i.i10 = icmp ugt i64 %41, %42
  br i1 %.not.i.i.i10, label %43, label %_ZN4llvm23SmallVectorTemplateBaseImLb1EE9push_backEm.exit11

43:                                               ; preds = %38
  %44 = getelementptr inbounds i8, ptr %0, i64 16
  tail call void @_ZN4llvm15SmallVectorBaseIjE8grow_podEPvmm(ptr noundef nonnull align 8 dereferenceable(16) %0, ptr noundef nonnull %44, i64 noundef %41, i64 noundef 8) #22
  br label %_ZN4llvm23SmallVectorTemplateBaseImLb1EE9push_backEm.exit11

_ZN4llvm23SmallVectorTemplateBaseImLb1EE9push_backEm.exit11: ; preds = %38, %43
  %45 = load ptr, ptr %0, align 8
  %46 = tail call noundef i64 @_ZNK4llvm15SmallVectorBaseIjE4sizeEv(ptr noundef nonnull align 8 dereferenceable(16) %0) #22
  %47 = getelementptr inbounds i64, ptr %45, i64 %46
  store i64 %39, ptr %47, align 1
  %48 = tail call noundef i64 @_ZNK4llvm15SmallVectorBaseIjE4sizeEv(ptr noundef nonnull align 8 dereferenceable(16) %0) #22
  %49 = add i64 %48, 1
  tail call void @_ZN4llvm15SmallVectorBaseIjE8set_sizeEm(ptr noundef nonnull align 8 dereferenceable(16) %0, i64 noundef %49) #22
  br label %_ZN4llvm26ImutAVLTreeGenericIteratorINS_17ImutContainerInfoIN12_GLOBAL__N_116EquivalenceClassEEEE12skipToParentEv.exit

50:                                               ; preds = %36
  %51 = load ptr, ptr %0, align 8
  %52 = tail call noundef i64 @_ZNK4llvm15SmallVectorBaseIjE4sizeEv(ptr noundef nonnull align 8 dereferenceable(16) %0) #22
  %53 = getelementptr inbounds i64, ptr %51, i64 %52
  %54 = getelementptr inbounds i8, ptr %53, i64 -8
  %55 = load i64, ptr %54, align 8
  %56 = or i64 %55, 3
  store i64 %56, ptr %54, align 8
  br label %_ZN4llvm26ImutAVLTreeGenericIteratorINS_17ImutContainerInfoIN12_GLOBAL__N_116EquivalenceClassEEEE12skipToParentEv.exit

57:                                               ; preds = %1
  %58 = tail call noundef i64 @_ZNK4llvm15SmallVectorBaseIjE4sizeEv(ptr noundef nonnull align 8 dereferenceable(16) %0) #22
  %59 = add i64 %58, -1
  tail call void @_ZN4llvm15SmallVectorBaseIjE8set_sizeEm(ptr noundef nonnull align 8 dereferenceable(16) %0, i64 noundef %59) #22
  %60 = tail call noundef zeroext i1 @_ZNK4llvm15SmallVectorBaseIjE5emptyEv(ptr noundef nonnull align 8 dereferenceable(16) %0) #22
  br i1 %60, label %_ZN4llvm26ImutAVLTreeGenericIteratorINS_17ImutContainerInfoIN12_GLOBAL__N_116EquivalenceClassEEEE12skipToParentEv.exit, label %.sink.split.i

.sink.split.i:                                    ; preds = %57
  %61 = load ptr, ptr %0, align 8
  %62 = tail call noundef i64 @_ZNK4llvm15SmallVectorBaseIjE4sizeEv(ptr noundef nonnull align 8 dereferenceable(16) %0) #22
  %63 = getelementptr inbounds i64, ptr %61, i64 %62
  %64 = getelementptr inbounds i8, ptr %63, i64 -8
  %65 = load i64, ptr %64, align 8
  %66 = and i64 %65, 3
  %switch.i = icmp eq i64 %66, 0
  %67 = load ptr, ptr %0, align 8
  %68 = tail call noundef i64 @_ZNK4llvm15SmallVectorBaseIjE4sizeEv(ptr noundef nonnull align 8 dereferenceable(16) %0) #22
  %69 = getelementptr inbounds i64, ptr %67, i64 %68
  %70 = getelementptr inbounds i8, ptr %69, i64 -8
  %71 = load i64, ptr %70, align 8
  %..i = select i1 %switch.i, i64 1, i64 3
  %72 = or i64 %71, %..i
  store i64 %72, ptr %70, align 8
  br label %_ZN4llvm26ImutAVLTreeGenericIteratorINS_17ImutContainerInfoIN12_GLOBAL__N_116EquivalenceClassEEEE12skipToParentEv.exit

73:                                               ; preds = %1
  unreachable

_ZN4llvm26ImutAVLTreeGenericIteratorINS_17ImutContainerInfoIN12_GLOBAL__N_116EquivalenceClassEEEE12skipToParentEv.exit: ; preds = %.sink.split.i, %57, %_ZN4llvm23SmallVectorTemplateBaseImLb1EE9push_backEm.exit11, %50, %_ZN4llvm23SmallVectorTemplateBaseImLb1EE9push_backEm.exit, %29
  ret ptr %0
}